(lp0
(dp1
S'AB_or2_md3_lr0.10_n100_2016-03-22_17_35_38'
p2
(dp3
S'spearmanr'
p4
(lp5
cnumpy.core.multiarray
scalar
p6
(cnumpy
dtype
p7
(S'f8'
p8
I0
I1
tp9
Rp10
(I3
S'<'
p11
NNNI-1
I-1
I0
tp12
bS'\x83\xae\xaa\xf7\xf4\x89\xe6?'
p13
tp14
Rp15
ag6
(g10
S'g\xf8\xc5m\xa7\n\xe6?'
p16
tp17
Rp18
ag6
(g10
S'Y0\x19\x00\xce\xb7\xe5?'
p19
tp20
Rp21
ag6
(g10
S'B\x00s\x89\xa7s\xe6?'
p22
tp23
Rp24
ag6
(g10
S'\x83u\xa7\xcbP\xfa\xe6?'
p25
tp26
Rp27
ag6
(g10
S'\xa9-\xb0\xcf\r8\xe6?'
p28
tp29
Rp30
ag6
(g10
S'|x*j\xd2\x8a\xe6?'
p31
tp32
Rp33
ag6
(g10
S'\x806\xa15\xe5\x83\xe6?'
p34
tp35
Rp36
ag6
(g10
S'd\x92\xf3\xa3\xe6L\xe6?'
p37
tp38
Rp39
ag6
(g10
S'\x94\xc5f\xd8\xb6{\xe6?'
p40
tp41
Rp42
assa(dp43
g2
(dp44
S'num_thread_per_proc'
p45
NsS'weighted'
p46
NsS'algorithm_hyperparam_search'
p47
S'grid'
p48
sS'include_strand'
p49
I00
sS'target_name'
p50
S'Day21-ETP'
p51
sS'adaboost_version'
p52
S'python'
p53
sS'extra pairs'
p54
I00
sS'V'
p55
I3
sS'testing_non_binary_target_name'
p56
S'raw'
p57
sS'gc_features'
p58
I01
sS'test_genes'
p59
NsS'n_folds'
p60
I10
sS'mutation_details'
p61
I01
sS'cv'
p62
S'stratified'
p63
sS'adaboost_alpha'
p64
F0.5
sS'all pairs'
p65
I00
sS'adaboost_n_estimators'
p66
I100
sS'nuc_features_WT'
p67
I00
sS'normalize_features'
p68
I00
sS'nuc_features'
p69
I01
sS'adaboost_max_depth'
p70
I3
sS'num_genes_remove_train'
p71
NsS'include_gene_guide_feature'
p72
I0
sS'include_known_pairs'
p73
I00
sS'include_gene_feature'
p74
I00
sS'method'
p75
S'AdaBoostRegressor'
p76
sS'phen_transform'
p77
S'binarize'
p78
sS'include_gene_position'
p79
I00
sS'num_proc'
p80
I8
sS'include_pi_nuc_feat'
p81
I00
sS'include_drug'
p82
I00
sS'include_azimuth_score'
p83
NsS'allowed_category'
p84
S'Mismatch'
p85
sS'include_microhomology'
p86
I00
sS'raw_target_name'
p87
S'Day21-ETP'
p88
sS'include_Tm'
p89
I00
sS'ignore_gene_level_for_inner_loop'
p90
I00
sS'adaboost_learning_rate'
p91
F0.1
sS'seed'
p92
I1
sS'mutation_type'
p93
I01
sS'train_genes'
p94
NsS'binary target name'
p95
g88
sS'adaboost_loss'
p96
S'ls'
p97
sS'rank-transformed target name'
p98
g88
sS'left_right_guide_ind'
p99
(lp100
I4
aI25
aI30
asS'include_sgRNAscore'
p101
I00
sS'adaboost_CV'
p102
I00
sS'flipV1target'
p103
I00
sS'include_NGGX_interaction'
p104
I00
sS'order'
p105
I2
sS'include_gene_effect'
p106
I00
sS'NDGC_k'
p107
I10
sS'raw target name'
p108
g88
sS'all_genes'
p109
cnumpy.core.multiarray
_reconstruct
p110
(cnumpy
ndarray
p111
(I0
tp112
S'b'
p113
tp114
Rp115
(I1
(L1L
tp116
g7
(S'O8'
p117
I0
I1
tp118
Rp119
(I3
S'|'
p120
NNNI-1
I-1
I63
tp121
bI00
(lp122
VMismatch
p123
atp124
bsS'training_metric'
p125
g4
sS'ground_truth_label'
p126
g51
sS'azimuth_feat'
p127
(lp128
S'MUT'
p129
aS'WT'
p130
assa(lp131
S'fold8'
p132
aS'fold9'
p133
aS'fold2'
p134
aS'fold3'
p135
aS'fold1'
p136
aS'fold6'
p137
aS'fold7'
p138
aS'fold4'
p139
aS'fold5'
p140
aS'fold10'
p141
aa.